target datalayout = "e-m:e-p270:32:32-p271:32:32-p272:64:64-i64:64-i128:128-f80:128-n8:16:32:64-S128"
target triple = "x86_64-pc-linux-gnu"

; Function Attrs: nounwind uwtable
define internal i32 @test_single_copy_read(ptr noundef %0, ptr noundef %1, i64 noundef %2, ptr noundef %3, ptr noundef %4) #0 {
  %6 = alloca i32, align 4
  %7 = alloca ptr, align 8
  %8 = alloca ptr, align 8
  %9 = alloca i64, align 8
  %10 = alloca ptr, align 8
  %11 = alloca ptr, align 8
  %12 = alloca ptr, align 8
  %13 = alloca i64, align 8
  %14 = alloca i32, align 4
  store ptr %0, ptr %7, align 8, !tbaa !30
  store ptr %1, ptr %8, align 8, !tbaa !20
  store i64 %2, ptr %9, align 8, !tbaa !11
  store ptr %3, ptr %10, align 8, !tbaa !41
  store ptr %4, ptr %11, align 8, !tbaa !43
  call void @llvm.lifetime.start.p0(i64 8, ptr %12) #5
  call void @llvm.lifetime.start.p0(i64 8, ptr %13) #5
  %15 = load ptr, ptr %10, align 8, !tbaa !41
  store i64 0, ptr %15, align 8, !tbaa !11
  br label %16

16:                                               ; preds = %60, %5
  %17 = load ptr, ptr %7, align 8, !tbaa !30
  %18 = load ptr, ptr %11, align 8, !tbaa !43
  %19 = call i32 @ossl_quic_rstream_get_record(ptr noundef %17, ptr noundef %12, ptr noundef %13, ptr noundef %18)
  %20 = icmp ne i32 %19, 0
  br i1 %20, label %22, label %21

21:                                               ; preds = %16
  store i32 0, ptr %6, align 4
  store i32 1, ptr %14, align 4
  br label %62

22:                                               ; preds = %16
  %23 = load i64, ptr %13, align 8, !tbaa !11
  %24 = icmp eq i64 %23, 0
  br i1 %24, label %25, label %26

25:                                               ; preds = %22
  br label %61

26:                                               ; preds = %22
  %27 = load i64, ptr %13, align 8, !tbaa !11
  %28 = load i64, ptr %9, align 8, !tbaa !11
  %29 = icmp ugt i64 %27, %28
  br i1 %29, label %30, label %33

30:                                               ; preds = %26
  %31 = load i64, ptr %9, align 8, !tbaa !11
  store i64 %31, ptr %13, align 8, !tbaa !11
  %32 = load ptr, ptr %11, align 8, !tbaa !43
  store i32 0, ptr %32, align 4, !tbaa !4
  br label %33

33:                                               ; preds = %30, %26
  %34 = load ptr, ptr %8, align 8, !tbaa !20
  %35 = load ptr, ptr %12, align 8, !tbaa !20
  %36 = load i64, ptr %13, align 8, !tbaa !11
  call void @llvm.memcpy.p0.p0.i64(ptr align 1 %34, ptr align 1 %35, i64 %36, i1 false)
  %37 = load i64, ptr %13, align 8, !tbaa !11
  %38 = load i64, ptr %9, align 8, !tbaa !11
  %39 = sub i64 %38, %37
  store i64 %39, ptr %9, align 8, !tbaa !11
  %40 = load i64, ptr %13, align 8, !tbaa !11
  %41 = load ptr, ptr %10, align 8, !tbaa !41
  %42 = load i64, ptr %41, align 8, !tbaa !11
  %43 = add i64 %42, %40
  store i64 %43, ptr %41, align 8, !tbaa !11
  %44 = load i64, ptr %13, align 8, !tbaa !11
  %45 = load ptr, ptr %8, align 8, !tbaa !20
  %46 = getelementptr inbounds nuw i8, ptr %45, i64 %44
  store ptr %46, ptr %8, align 8, !tbaa !20
  %47 = load ptr, ptr %7, align 8, !tbaa !30
  %48 = load i64, ptr %13, align 8, !tbaa !11
  %49 = call i32 @ossl_quic_rstream_release_record(ptr noundef %47, i64 noundef %48)
  %50 = icmp ne i32 %49, 0
  br i1 %50, label %52, label %51

51:                                               ; preds = %33
  store i32 0, ptr %6, align 4
  store i32 1, ptr %14, align 4
  br label %62

52:                                               ; preds = %33
  %53 = load ptr, ptr %11, align 8, !tbaa !43
  %54 = load i32, ptr %53, align 4, !tbaa !4
  %55 = icmp ne i32 %54, 0
  br i1 %55, label %59, label %56

56:                                               ; preds = %52
  %57 = load i64, ptr %9, align 8, !tbaa !11
  %58 = icmp eq i64 %57, 0
  br i1 %58, label %59, label %60

59:                                               ; preds = %56, %52
  br label %61

60:                                               ; preds = %56
  br label %16

61:                                               ; preds = %59, %25
  store i32 1, ptr %6, align 4
  store i32 1, ptr %14, align 4
  br label %62

62:                                               ; preds = %61, %51, %21
  call void @llvm.lifetime.end.p0(i64 8, ptr %13) #5
  call void @llvm.lifetime.end.p0(i64 8, ptr %12) #5
  %63 = load i32, ptr %6, align 4
  ret i32 %63
}