; Function Attrs: nounwind uwtable
define internal range(i32 0, 2) i32 @test_single_copy_read(ptr noundef %0, ptr noundef writeonly captures(none) %1, i64 noundef %2, ptr noundef captures(none) initializes((0, 8)) %3, ptr noundef %4) unnamed_addr #0 {
  %6 = alloca ptr, align 8
  %7 = alloca i64, align 8
  call void @llvm.lifetime.start.p0(i64 8, ptr nonnull %6) #7
  call void @llvm.lifetime.start.p0(i64 8, ptr nonnull %7) #7
  store i64 0, ptr %3, align 8, !tbaa !4
  br label %8

8:                                                ; preds = %22, %5
  %.015 = phi i64 [ %2, %5 ], [ %24, %22 ]
  %.014 = phi ptr [ %1, %5 ], [ %23, %22 ]
  %9 = call i32 @ossl_quic_rstream_get_record(ptr noundef %0, ptr noundef nonnull %6, ptr noundef nonnull %7, ptr noundef %4) #7
  %.not = icmp eq i32 %9, 0
  br i1 %.not, label %28, label %10

10:                                               ; preds = %8
  %11 = load i64, ptr %7, align 8, !tbaa !4
  %12 = icmp eq i64 %11, 0
  br i1 %12, label %28, label %13

13:                                               ; preds = %10
  %14 = icmp ugt i64 %11, %.015
  br i1 %14, label %15, label %16

15:                                               ; preds = %13
  store i64 %.015, ptr %7, align 8, !tbaa !4
  store i32 0, ptr %4, align 4, !tbaa !26
  br label %16

16:                                               ; preds = %15, %13
  %17 = phi i64 [ %.015, %15 ], [ %11, %13 ]
  %18 = load ptr, ptr %6, align 8, !tbaa !30
  call void @llvm.memcpy.p0.p0.i64(ptr align 1 %.014, ptr align 1 %18, i64 %17, i1 false)
  %19 = load i64, ptr %3, align 8, !tbaa !4
  %20 = add i64 %19, %17
  store i64 %20, ptr %3, align 8, !tbaa !4
  %21 = call i32 @ossl_quic_rstream_release_record(ptr noundef %0, i64 noundef %17) #7
  %.not18 = icmp eq i32 %21, 0
  br i1 %.not18, label %28, label %22

22:                                               ; preds = %16
  %23 = getelementptr inbounds nuw i8, ptr %.014, i64 %17
  %24 = sub i64 %.015, %17
  %25 = load i32, ptr %4, align 4, !tbaa !26
  %26 = icmp ne i32 %25, 0
  %27 = icmp eq i64 %24, 0
  %or.cond = select i1 %26, i1 true, i1 %27
  br i1 %or.cond, label %28, label %8

28:                                               ; preds = %10, %22, %16, %8
  %.0 = phi i32 [ 0, %8 ], [ 0, %16 ], [ 1, %22 ], [ 1, %10 ]
  call void @llvm.lifetime.end.p0(i64 8, ptr nonnull %7) #7
  call void @llvm.lifetime.end.p0(i64 8, ptr nonnull %6) #7
  ret i32 %.0
}